; Function Attrs: null_pointer_is_valid sspstrong uwtable
define ptr @try_enterprises_lookup(i32 noundef %0) local_unnamed_addr #3 {
  %2 = load ptr, ptr @enterprises_hashtable, align 8
  %3 = zext i32 %0 to i64
  %4 = inttoptr i64 %3 to ptr
  %5 = tail call ptr @g_hash_table_lookup(ptr noundef %2, ptr noundef %4)
  %.not = icmp eq ptr %5, null
  br i1 %.not, label %6, label %8

6:                                                ; preds = %1
  %7 = tail call ptr @global_enterprises_lookup(i32 noundef %0)
  br label %8

8:                                                ; preds = %1, %6
  %.0 = phi ptr [ %7, %6 ], [ %5, %1 ]
  ret ptr %.0
}